Certificate:
    Data:
        Version: 3 (0x2)
        Serial Number: 2 (0x2)
        Signature Algorithm: sha256WithRSAEncryption
        Issuer: C=DE, O=DIMDI, OU=DIMDI, CN=DIMDI-RootCA-2011
        Validity
            Not Before: May 12 16:49:01 2011 GMT
            Not After : May 11 16:49:01 2036 GMT
        Subject: C=DE, O=DIMDI, OU=DIMDI, CN=DIMDI-App-AccessCA2
        Subject Public Key Info:
            Public Key Algorithm: rsaEncryption
            RSA Public Key: (2048 bit)
                Modulus (2048 bit):
                    00:cc:f7:51:b5:e8:f1:ef:7b:60:45:f6:fd:57:24:
                    e0:04:b5:b4:72:65:cb:c5:82:b6:07:49:71:40:db:
                    65:78:3e:31:ec:10:f5:f7:09:88:75:d7:2f:53:ff:
                    3b:bf:ce:fd:cd:1d:fa:08:b0:93:46:46:06:b1:32:
                    d1:c5:13:ce:3c:45:7b:5e:aa:19:a8:bb:bb:d4:83:
                    e9:f3:b1:28:cf:43:7d:93:b1:e2:d5:72:6d:10:4b:
                    2c:d9:76:eb:1c:2b:69:2e:ca:c5:54:5d:24:52:b2:
                    f6:ab:cd:b7:29:a7:ee:ae:bf:3d:d0:30:99:2a:7f:
                    29:8a:a5:d5:16:3f:44:bf:38:b7:b2:59:f0:ca:29:
                    ee:53:2d:56:df:b3:97:49:69:d5:9d:20:68:d9:e0:
                    68:fa:1c:8b:02:0d:34:09:f8:d0:24:05:f5:35:9f:
                    3d:2f:dd:71:b8:a7:da:43:34:99:8b:a6:09:92:fa:
                    ed:b4:bf:20:99:b6:be:74:e9:5b:1a:13:89:c4:33:
                    12:19:fe:3e:a2:99:5c:c9:39:83:82:96:6d:14:6b:
                    4a:5f:52:0a:5d:1a:33:b3:33:3d:0b:3b:d4:62:30:
                    30:5b:a5:0d:fd:d7:1f:9a:66:ce:ea:12:87:2b:a4:
                    57:78:87:65:b7:ca:1b:a4:c1:08:5e:a6:cc:20:6e:
                    8e:1f
                Exponent: 65537 (0x10001)
        X509v3 extensions:
            X509v3 Basic Constraints: critical
                CA:TRUE
            X509v3 Key Usage: 
                Certificate Sign, CRL Sign
            Netscape Comment: 
                SubCA
            X509v3 Subject Key Identifier: 
                75:86:8B:0E:9E:61:C1:34:74:E6:07:6B:93:03:67:CB:68:4B:78:FF
            X509v3 Authority Key Identifier: 
                DirName:/C=DE/O=DIMDI/OU=DIMDI/CN=DIMDI-RootCA-2011
                serial:EA:BE:94:DE:F7:F1:11:49

            X509v3 Issuer Alternative Name: 
                <EMPTY>

            X509v3 CRL Distribution Points: 
                URI:http://www.dimdi.de/dimdi-ca/crl.pem

    Signature Algorithm: sha256WithRSAEncryption
        c2:aa:a5:ac:bc:84:bc:8c:60:30:0d:27:6a:f8:ee:87:dc:89:
        60:4a:c8:79:25:86:39:8b:f8:89:df:3d:df:3d:ef:a5:ef:84:
        86:f9:92:8f:96:6c:fa:7e:28:68:38:79:ba:97:85:0c:71:00:
        c8:c3:38:e2:eb:12:48:c2:bb:ae:3a:de:7a:75:9d:c6:71:7e:
        35:5c:d2:d9:90:a0:0e:2d:06:e7:12:7b:99:d2:ad:65:06:35:
        6c:94:e9:a7:4d:bf:79:de:9d:c8:ef:26:90:2f:64:5a:10:44:
        5e:0b:96:ba:8a:2c:06:55:44:76:23:c8:e4:32:fe:2a:5a:b0:
        22:fd:19:4a:1a:6b:2e:08:08:57:e5:45:90:8e:10:7b:bf:12:
        81:94:20:74:af:f4:e4:22:24:58:a1:f9:99:ee:1a:d5:b3:95:
        18:32:6e:72:a8:54:7d:66:26:4b:33:37:6d:04:c4:2d:84:ce:
        35:bd:a0:da:e4:9e:78:10:a4:65:3a:b1:b8:68:c0:da:83:4c:
        50:ff:de:e0:62:23:ce:de:ab:b1:a7:9a:ed:9e:28:59:11:bd:
        65:37:12:27:9a:b2:10:36:15:ee:bd:0c:83:95:2b:91:6b:a4:
        4d:bb:ec:5e:d2:c8:11:66:5c:fc:20:28:81:ea:20:25:75:ab:
        4f:06:05:2b:b7:6d:4f:13:95:8a:f8:a7:51:f1:ac:4a:25:af:
        3a:8c:71:98:6e:56:5d:f6:43:4a:62:74:85:fe:18:86:6c:4f:
        ae:e0:ca:83:ee:04:c1:e4:7f:4e:19:fd:c3:8e:90:eb:8e:80:
        92:47:62:ea:21:e3:02:0a:e9:47:81:e3:84:0a:ca:18:a0:90:
        a2:f0:01:ff:a9:4f:86:6d:fd:c0:4f:65:c5:45:32:1b:30:ee:
        c2:bf:3f:19:db:c9:f4:3b:3e:e4:3b:2b:f9:dc:c3:41:93:58:
        ac:8f:f0:64:ec:66:ff:2c:15:a6:5f:1d:5b:31:c6:41:0c:c8:
        ea:a6:a5:bb:6b:c9:84:d2:68:06:21:56:85:a4:3c:65:5c:70:
        3c:19:32:1f:ae:bc:58:0f:53:83:80:ab:80:4b:88:2c:75:28:
        d1:3a:dd:2d:4c:70:47:0c:95:1f:66:ac:f9:1b:25:15:e8:3e:
        54:9f:e4:ae:5e:f7:91:e5:46:e3:e7:d2:26:80:5a:a0:fc:a0:
        79:e5:3b:c1:30:fe:1a:75:59:57:1d:8b:b5:56:9f:62:d4:af:
        c9:06:27:d4:ad:f9:e5:55:d8:2f:f0:2e:7d:12:e6:94:80:01:
        ca:8d:f1:fc:14:87:ed:d8:07:7b:ca:bc:d9:6b:9d:ca:73:87:
        13:b7:88:b7:13:c0:eb:51
-----BEGIN CERTIFICATE-----
MIIFDTCCAvWgAwIBAgIBAjANBgkqhkiG9w0BAQsFADBJMQswCQYDVQQGEwJERTEO
MAwGA1UEChMFRElNREkxDjAMBgNVBAsTBURJTURJMRowGAYDVQQDExFESU1ESS1S
b290Q0EtMjAxMTAeFw0xMTA1MTIxNjQ5MDFaFw0zNjA1MTExNjQ5MDFaMEsxCzAJ
BgNVBAYTAkRFMQ4wDAYDVQQKEwVESU1ESTEOMAwGA1UECxMFRElNREkxHDAaBgNV
BAMTE0RJTURJLUFwcC1BY2Nlc3NDQTIwggEiMA0GCSqGSIb3DQEBAQUAA4IBDwAw
ggEKAoIBAQDM91G16PHve2BF9v1XJOAEtbRyZcvFgrYHSXFA22V4PjHsEPX3CYh1
1y9T/zu/zv3NHfoIsJNGRgaxMtHFE848RXteqhmou7vUg+nzsSjPQ32TseLVcm0Q
SyzZduscK2kuysVUXSRSsvarzbcpp+6uvz3QMJkqfymKpdUWP0S/OLeyWfDKKe5T
LVbfs5dJadWdIGjZ4Gj6HIsCDTQJ+NAkBfU1nz0v3XG4p9pDNJmLpgmS+u20vyCZ
tr506VsaE4nEMxIZ/j6imVzJOYOClm0Ua0pfUgpdGjOzMz0LO9RiMDBbpQ391x+a
Zs7qEocrpFd4h2W3yhukwQhepswgbo4fAgMBAAGjgf0wgfowDwYDVR0TAQH/BAUw
AwEB/zALBgNVHQ8EBAMCAQYwFAYJYIZIAYb4QgENBAcWBVN1YkNBMB0GA1UdDgQW
BBR1hosOnmHBNHTmB2uTA2fLaEt4/zBjBgNVHSMEXDBaoU2kSzBJMQswCQYDVQQG
EwJERTEOMAwGA1UEChMFRElNREkxDjAMBgNVBAsTBURJTURJMRowGAYDVQQDExFE
SU1ESS1Sb290Q0EtMjAxMYIJAOq+lN738RFJMAkGA1UdEgQCMAAwNQYDVR0fBC4w
LDAqoCigJoYkaHR0cDovL3d3dy5kaW1kaS5kZS9kaW1kaS1jYS9jcmwucGVtMA0G
CSqGSIb3DQEBCwUAA4ICAQDCqqWsvIS8jGAwDSdq+O6H3IlgSsh5JYY5i/iJ3z3f
Pe+l74SG+ZKPlmz6fihoOHm6l4UMcQDIwzji6xJIwruuOt56dZ3GcX41XNLZkKAO
LQbnEnuZ0q1lBjVslOmnTb953p3I7yaQL2RaEEReC5a6iiwGVUR2I8jkMv4qWrAi
/RlKGmsuCAhX5UWQjhB7vxKBlCB0r/TkIiRYofmZ7hrVs5UYMm5yqFR9ZiZLMzdt
BMQthM41vaDa5J54EKRlOrG4aMDag0xQ/97gYiPO3quxp5rtnihZEb1lNxInmrIQ
NhXuvQyDlSuRa6RNu+xe0sgRZlz8ICiB6iAldatPBgUrt21PE5WK+KdR8axKJa86
jHGYblZd9kNKYnSF/hiGbE+u4MqD7gTB5H9OGf3DjpDrjoCSR2LqIeMCCulHgeOE
CsoYoJCi8AH/qU+Gbf3AT2XFRTIbMO7Cvz8Z28n0Oz7kOyv53MNBk1isj/Bk7Gb/
LBWmXx1bMcZBDMjqpqW7a8mE0mgGIVaFpDxlXHA8GTIfrrxYD1ODgKuAS4gsdSjR
Ot0tTHBHDJUfZqz5GyUV6D5Un+SuXveR5Ubj59ImgFqg/KB55TvBMP4adVlXHYu1
Vp9i1K/JBifUrfnlVdgv8C59EuaUgAHKjfH8FIft2Ad7yrzZa53Kc4cTt4i3E8Dr
UQ==
-----END CERTIFICATE-----
