Certificate:
    Data:
        Version: 3 (0x2)
        Serial Number: 1 (0x1)
        Signature Algorithm: sha1WithRSAEncryption
        Issuer: C=DE, O=charite.de, CN=rootCA
        Validity
            Not Before: May 15 10:50:10 2009 GMT
            Not After : May 16 10:50:10 2011 GMT
        Subject: C=DE, O=charite.de, CN=subCA
        Subject Public Key Info:
            Public Key Algorithm: rsaEncryption
            RSA Public Key: (2048 bit)
                Modulus (2048 bit):
                    00:c2:fb:8a:5e:04:b7:89:0a:03:4f:9d:f0:f7:4e:
                    b3:1a:a3:fb:f5:86:24:41:28:80:d8:1a:99:f3:3e:
                    e6:ea:80:b4:7b:e0:f1:75:2e:72:c7:4f:26:c3:bf:
                    f9:96:fc:e5:76:21:13:93:58:cd:29:35:03:15:fc:
                    ba:a4:29:80:c2:e5:bf:9b:fa:54:c7:6a:52:f1:7c:
                    2f:ee:54:d9:66:05:fb:8a:1a:a0:10:fb:db:0f:96:
                    c7:1c:4d:59:c5:86:1f:93:13:40:cf:9e:5c:8f:f3:
                    05:b1:72:13:87:e8:a8:5e:a3:99:ba:00:44:8d:a7:
                    55:9e:c8:b9:24:98:73:db:49:2e:f8:56:a4:c5:ad:
                    9f:f8:62:74:5f:37:6d:a6:f4:cf:e6:15:38:20:b0:
                    22:59:76:a4:d5:f7:6d:6e:3f:bc:7d:0b:cb:ec:f8:
                    23:c3:1b:a6:18:73:ea:56:cd:45:e3:89:3f:4b:18:
                    da:e0:43:6b:2a:71:d4:dd:87:61:77:6b:c1:39:9a:
                    85:39:40:72:1f:d5:37:a9:66:2d:00:6f:fa:f5:65:
                    65:50:13:4c:77:0b:31:22:0d:ae:79:9a:4c:c7:f3:
                    f7:46:31:b0:84:e8:7b:9a:21:e1:b3:32:77:b3:a9:
                    fd:97:27:b9:ca:af:bd:31:1f:5d:96:88:1d:82:af:
                    85:53
                Exponent: 65537 (0x10001)
        X509v3 extensions:
            X509v3 Basic Constraints: critical
                CA:TRUE
            X509v3 Key Usage: 
                Certificate Sign, CRL Sign
            Netscape Comment: 
                OpenSC - Charite - testSubCA
            X509v3 Subject Key Identifier: 
                88:93:4B:A3:82:D9:8D:1D:DC:5E:12:66:AA:D7:77:67:39:14:58:CD
            X509v3 Authority Key Identifier: 
                DirName:/C=DE/O=charite.de/CN=rootCA
                serial:AC:1E:DF:34:06:E8:8B:33

            X509v3 Issuer Alternative Name: 
                <EMPTY>

            X509v3 CRL Distribution Points: 
                URI:http://opensc.charite.de/crl/subca.crl

    Signature Algorithm: sha1WithRSAEncryption
        aa:fd:61:25:c9:c3:8f:a6:66:68:bc:21:4c:ca:d4:15:d4:13:
        71:27:d5:2b:85:ab:ff:9e:41:0e:41:bf:61:26:93:b3:e5:4b:
        33:f9:3d:95:47:f1:0b:2f:85:ca:eb:41:de:b2:ec:52:a6:97:
        30:2d:03:56:43:3a:f1:68:34:25:bf:2d:a3:43:fa:e1:76:e1:
        e8:01:75:ed:b7:42:bb:ea:75:81:21:2b:3c:a5:5b:fa:9c:f7:
        51:58:21:db:b4:bd:ec:90:20:4b:ea:9c:9b:fb:c9:1f:de:b1:
        7e:3e:60:7a:21:56:5b:d5:a4:e7:56:4e:16:38:a0:42:d3:10:
        36:5f:d2:fa:31:e9:77:e0:f5:5e:1c:3b:91:8c:27:57:08:35:
        bf:9d:9b:c3:ff:62:7e:e4:19:8b:ac:85:a7:a2:be:2e:e3:da:
        27:29:e9:14:48:5a:24:fc:85:83:e0:de:a3:8f:c5:54:6c:2a:
        82:f2:2f:c6:f4:10:d2:44:40:93:a3:87:4d:b7:a6:f0:20:16:
        f8:36:aa:47:b0:cf:60:81:7d:57:43:ee:1f:85:f7:ab:05:54:
        62:68:7d:17:00:fe:03:29:c2:0e:e4:f6:28:dc:73:81:e8:10:
        e2:b8:29:df:e0:38:2a:14:c8:5e:59:e2:5f:45:f6:2e:6b:e6:
        91:4d:e9:e9
-----BEGIN CERTIFICATE-----
MIID4jCCAsqgAwIBAgIBATANBgkqhkiG9w0BAQUFADAzMQswCQYDVQQGEwJERTET
MBEGA1UEChMKY2hhcml0ZS5kZTEPMA0GA1UEAxMGcm9vdENBMB4XDTA5MDUxNTEw
NTAxMFoXDTExMDUxNjEwNTAxMFowMjELMAkGA1UEBhMCREUxEzARBgNVBAoTCmNo
YXJpdGUuZGUxDjAMBgNVBAMTBXN1YkNBMIIBIjANBgkqhkiG9w0BAQEFAAOCAQ8A
MIIBCgKCAQEAwvuKXgS3iQoDT53w906zGqP79YYkQSiA2BqZ8z7m6oC0e+DxdS5y
x08mw7/5lvzldiETk1jNKTUDFfy6pCmAwuW/m/pUx2pS8Xwv7lTZZgX7ihqgEPvb
D5bHHE1ZxYYfkxNAz55cj/MFsXITh+ioXqOZugBEjadVnsi5JJhz20ku+Fakxa2f
+GJ0XzdtpvTP5hU4ILAiWXak1fdtbj+8fQvL7PgjwxumGHPqVs1F44k/Sxja4ENr
KnHU3Ydhd2vBOZqFOUByH9U3qWYtAG/69WVlUBNMdwsxIg2ueZpMx/P3RjGwhOh7
miHhszJ3s6n9lye5yq+9MR9dlogdgq+FUwIDAQABo4IBADCB/TAPBgNVHRMBAf8E
BTADAQH/MAsGA1UdDwQEAwIBBjArBglghkgBhvhCAQ0EHhYcT3BlblNDIC0gQ2hh
cml0ZSAtIHRlc3RTdWJDQTAdBgNVHQ4EFgQUiJNLo4LZjR3cXhJmqtd3ZzkUWM0w
TQYDVR0jBEYwRKE3pDUwMzELMAkGA1UEBhMCREUxEzARBgNVBAoTCmNoYXJpdGUu
ZGUxDzANBgNVBAMTBnJvb3RDQYIJAKwe3zQG6IszMAkGA1UdEgQCMAAwNwYDVR0f
BDAwLjAsoCqgKIYmaHR0cDovL29wZW5zYy5jaGFyaXRlLmRlL2NybC9zdWJjYS5j
cmwwDQYJKoZIhvcNAQEFBQADggEBAKr9YSXJw4+mZmi8IUzK1BXUE3En1SuFq/+e
QQ5Bv2Emk7PlSzP5PZVH8QsvhcrrQd6y7FKmlzAtA1ZDOvFoNCW/LaND+uF24egB
de23QrvqdYEhKzylW/qc91FYIdu0veyQIEvqnJv7yR/esX4+YHohVlvVpOdWThY4
oELTEDZf0vox6Xfg9V4cO5GMJ1cINb+dm8P/Yn7kGYushaeivi7j2icp6RRIWiT8
hYPg3qOPxVRsKoLyL8b0ENJEQJOjh023pvAgFvg2qkewz2CBfVdD7h+F96sFVGJo
fRcA/gMpwg7k9ijcc4HoEOK4Kd/gOCoUyF5Z4l9F9i5r5pFN6ek=
-----END CERTIFICATE-----
