Certificate:
    Data:
        Version: 3 (0x2)
        Serial Number: 1 (0x1)
        Signature Algorithm: sha256WithRSAEncryption
        Issuer: C=DE, O=DIMDI, OU=DIMDI, CN=DIMDI-RootCA-2011
        Validity
            Not Before: May 12 13:48:58 2011 GMT
            Not After : May 10 13:48:58 2036 GMT
        Subject: C=DE, O=DIMDI, OU=DIMDI, CN=SubCA XYZ
        Subject Public Key Info:
            Public Key Algorithm: rsaEncryption
            RSA Public Key: (4096 bit)
                Modulus (4096 bit):
                    00:9b:6a:e6:3b:73:29:14:03:c1:00:f8:08:0f:7b:
                    81:f7:a2:0e:23:4e:db:7c:2e:0d:e9:42:8b:58:23:
                    e9:c1:d4:ac:ed:2d:ec:d0:23:4d:4c:90:87:08:64:
                    61:7b:bf:34:66:dd:2f:91:c3:02:6f:f3:e4:7a:d3:
                    fa:25:e6:8f:76:61:ac:43:11:65:08:3f:d6:48:9f:
                    e2:a3:c7:e7:70:b9:45:41:93:80:94:a7:5f:2f:3d:
                    d3:cf:f5:7a:48:bf:44:45:25:02:fb:3f:65:09:41:
                    b0:ef:1c:5b:26:ee:36:7c:71:63:04:09:11:eb:f3:
                    ea:18:a0:31:7c:ff:09:a5:5f:76:c3:c0:07:27:9b:
                    4a:99:de:cd:30:c1:87:3a:50:1f:85:ea:82:35:7f:
                    97:52:08:9c:24:8b:b4:16:66:ef:00:6e:e2:fb:a1:
                    b2:0b:bd:e3:aa:f2:1b:34:15:0d:04:7b:f3:d8:5a:
                    f4:55:9c:c6:6d:b9:4c:b4:d2:12:7e:2b:0c:d1:7a:
                    7a:37:b7:ad:28:b6:54:c6:1b:de:43:d2:26:48:96:
                    82:de:7a:80:e9:1d:36:52:dd:6d:ef:d2:c0:56:4e:
                    0e:89:7c:16:78:60:ec:52:d7:15:e4:8f:83:a8:cf:
                    3b:56:02:45:52:1c:f8:f7:6a:41:e7:3f:9b:83:e6:
                    ef:86:0d:3d:e1:ea:c8:71:5f:4b:49:fb:11:bb:07:
                    f1:8d:76:e9:55:fc:5e:5d:f8:7f:ff:aa:f6:e2:83:
                    d1:d2:32:31:0c:12:50:3f:7e:a8:21:1e:16:f8:9a:
                    f2:2e:19:0f:b1:82:1b:a5:f9:98:f4:99:16:e8:83:
                    28:61:a4:56:12:ae:c7:b3:59:49:90:02:41:f7:79:
                    01:91:f8:7e:9f:92:9e:c1:64:4e:35:1a:66:ab:9a:
                    ec:73:49:72:a0:54:8f:bb:d0:02:d6:6d:3c:71:e5:
                    e8:67:63:87:51:d2:db:7b:30:01:4b:21:70:c2:0d:
                    75:f6:82:99:ec:75:9e:e5:ec:c6:b2:12:54:4a:1d:
                    5a:ea:8f:b3:64:c8:cd:57:77:63:34:75:f2:e0:fb:
                    e4:e3:35:7e:d2:b0:81:e8:51:21:85:a6:29:cf:7f:
                    13:fb:90:96:62:5e:b3:8f:46:ae:99:ed:b5:2e:50:
                    e7:f4:e6:cb:4e:62:23:d2:7b:60:93:f0:3f:4c:0a:
                    a2:84:d9:b1:71:f0:79:69:13:fe:ab:15:0e:2c:85:
                    e6:73:46:fc:8e:a4:18:61:33:26:e2:c2:a5:ff:d2:
                    ec:31:26:52:be:48:91:25:e4:6e:ff:6e:fa:82:7b:
                    52:ed:aa:b8:4b:f8:af:74:49:3a:9a:60:db:1b:e3:
                    1c:8a:9d
                Exponent: 65537 (0x10001)
        X509v3 extensions:
            X509v3 Basic Constraints: critical
                CA:TRUE
            X509v3 Key Usage: 
                Certificate Sign, CRL Sign
            Netscape Comment: 
                SubCA
            X509v3 Subject Key Identifier: 
                1B:E7:AE:3A:12:57:0A:B7:33:CA:96:D4:8A:A6:11:26:F5:53:EA:3E
            X509v3 Authority Key Identifier: 
                DirName:/C=DE/O=DIMDI/OU=DIMDI/CN=DIMDI-RootCA-2011
                serial:9F:C2:90:82:45:C1:E1:E9

            X509v3 Issuer Alternative Name: 
                <EMPTY>

    Signature Algorithm: sha256WithRSAEncryption
        27:d0:3f:f6:ce:e7:c8:85:99:14:b1:c0:0e:25:e0:c2:52:43:
        7e:73:f6:9d:2d:80:f6:30:e4:5b:98:be:1b:4c:0e:0c:40:2f:
        6b:e3:b6:93:a1:4f:e8:21:16:6f:96:0a:24:66:93:4d:5e:0f:
        55:1d:c8:44:13:fc:94:6e:0b:c5:8c:db:36:74:95:4a:ad:2d:
        f7:65:71:ca:29:a5:ef:63:ec:4d:27:8e:33:d1:ca:38:78:6a:
        37:d5:6b:c3:f2:f0:ae:43:39:f5:af:f8:ce:b6:d2:5e:f1:95:
        0e:7e:75:b6:15:69:b7:2e:14:33:5c:af:a9:bb:43:b3:6c:3a:
        12:bc:75:15:28:a2:e1:fa:49:5d:b2:b2:75:74:a8:0c:48:be:
        69:e4:39:7d:cd:e0:e3:0e:cc:95:e0:c9:b3:a6:bb:96:fb:c3:
        37:9c:13:de:4a:bc:95:95:41:9b:50:47:52:9d:c0:e8:e7:79:
        bf:f3:15:ec:70:b6:de:2e:84:d3:db:b6:5b:7d:12:37:3a:a6:
        c6:c6:14:d2:aa:fe:62:af:73:ae:98:16:b3:27:9a:f6:9b:c5:
        76:96:e1:83:7d:94:07:49:af:a0:c4:e9:87:4b:a7:63:aa:d4:
        58:9e:35:fc:cf:fe:a2:4f:14:c8:3b:0c:81:2f:80:cc:dd:b8:
        25:08:80:62:64:d9:ce:20:8d:a3:99:34:3c:33:95:8d:53:a0:
        d8:dd:b1:b8:92:59:53:0f:f8:84:29:db:30:7f:35:19:a5:c7:
        09:76:41:ab:d3:d0:95:aa:7c:40:0f:82:3a:d1:39:ed:a3:5c:
        c3:eb:26:56:86:5d:65:6c:e2:9f:a4:4e:c5:da:f3:a5:1e:89:
        3d:a7:e6:84:ab:05:ea:75:9b:90:f3:d4:10:21:35:7c:78:ea:
        1a:54:15:4e:14:b0:0d:72:42:fe:ac:9b:7e:5e:05:1d:40:82:
        97:5c:2f:33:4e:ee:2f:f5:0f:50:04:c9:83:21:79:5e:f4:1b:
        9f:8b:3b:ee:b4:0f:3d:06:d6:54:07:47:f0:81:b4:5e:f2:35:
        b7:41:60:78:c4:ef:d8:aa:8d:03:db:0d:82:37:dd:ae:8a:63:
        77:31:e2:ec:6b:2c:0a:58:c8:b8:5a:86:a4:b8:8f:85:10:e6:
        2e:ca:b6:b4:c7:41:0a:29:7a:c4:04:71:7d:92:00:76:d7:48:
        71:ce:d9:c0:d7:31:09:cd:71:92:59:73:ed:18:fa:c6:4d:36:
        2b:fc:6f:a5:e1:b5:96:5f:58:74:e6:93:58:54:ae:83:18:4e:
        ce:71:c0:5d:f5:c4:26:ba:fd:f8:62:31:c3:e1:18:1c:c5:5e:
        70:25:48:14:2c:b9:de:a0
-----BEGIN CERTIFICATE-----
MIIFzDCCA7SgAwIBAgIBATANBgkqhkiG9w0BAQsFADBJMQswCQYDVQQGEwJERTEO
MAwGA1UEChMFRElNREkxDjAMBgNVBAsTBURJTURJMRowGAYDVQQDExFESU1ESS1S
b290Q0EtMjAxMTAeFw0xMTA1MTIxMzQ4NThaFw0zNjA1MTAxMzQ4NThaMEExCzAJ
BgNVBAYTAkRFMQ4wDAYDVQQKEwVESU1ESTEOMAwGA1UECxMFRElNREkxEjAQBgNV
BAMTCVN1YkNBIFhZWjCCAiIwDQYJKoZIhvcNAQEBBQADggIPADCCAgoCggIBAJtq
5jtzKRQDwQD4CA97gfeiDiNO23wuDelCi1gj6cHUrO0t7NAjTUyQhwhkYXu/NGbd
L5HDAm/z5HrT+iXmj3ZhrEMRZQg/1kif4qPH53C5RUGTgJSnXy8908/1eki/REUl
Avs/ZQlBsO8cWybuNnxxYwQJEevz6higMXz/CaVfdsPAByebSpnezTDBhzpQH4Xq
gjV/l1IInCSLtBZm7wBu4vuhsgu946ryGzQVDQR789ha9FWcxm25TLTSEn4rDNF6
eje3rSi2VMYb3kPSJkiWgt56gOkdNlLdbe/SwFZODol8Fnhg7FLXFeSPg6jPO1YC
RVIc+PdqQec/m4Pm74YNPeHqyHFfS0n7EbsH8Y126VX8Xl34f/+q9uKD0dIyMQwS
UD9+qCEeFvia8i4ZD7GCG6X5mPSZFuiDKGGkVhKux7NZSZACQfd5AZH4fp+SnsFk
TjUaZqua7HNJcqBUj7vQAtZtPHHl6Gdjh1HS23swAUshcMINdfaCmex1nuXsxrIS
VEodWuqPs2TIzVd3YzR18uD75OM1ftKwgehRIYWmKc9/E/uQlmJes49GrpnttS5Q
5/Tmy05iI9J7YJPwP0wKooTZsXHweWkT/qsVDiyF5nNG/I6kGGEzJuLCpf/S7DEm
Ur5IkSXkbv9u+oJ7Uu2quEv4r3RJOppg2xvjHIqdAgMBAAGjgcYwgcMwDwYDVR0T
AQH/BAUwAwEB/zALBgNVHQ8EBAMCAQYwFAYJYIZIAYb4QgENBAcWBVN1YkNBMB0G
A1UdDgQWBBQb5646ElcKtzPKltSKphEm9VPqPjBjBgNVHSMEXDBaoU2kSzBJMQsw
CQYDVQQGEwJERTEOMAwGA1UEChMFRElNREkxDjAMBgNVBAsTBURJTURJMRowGAYD
VQQDExFESU1ESS1Sb290Q0EtMjAxMYIJAJ/CkIJFweHpMAkGA1UdEgQCMAAwDQYJ
KoZIhvcNAQELBQADggIBACfQP/bO58iFmRSxwA4l4MJSQ35z9p0tgPYw5FuYvhtM
DgxAL2vjtpOhT+ghFm+WCiRmk01eD1UdyEQT/JRuC8WM2zZ0lUqtLfdlccoppe9j
7E0njjPRyjh4ajfVa8Py8K5DOfWv+M620l7xlQ5+dbYVabcuFDNcr6m7Q7NsOhK8
dRUoouH6SV2ysnV0qAxIvmnkOX3N4OMOzJXgybOmu5b7wzecE95KvJWVQZtQR1Kd
wOjneb/zFexwtt4uhNPbtlt9Ejc6psbGFNKq/mKvc66YFrMnmvabxXaW4YN9lAdJ
r6DE6YdLp2Oq1FieNfzP/qJPFMg7DIEvgMzduCUIgGJk2c4gjaOZNDwzlY1ToNjd
sbiSWVMP+IQp2zB/NRmlxwl2QavT0JWqfEAPgjrROe2jXMPrJlaGXWVs4p+kTsXa
86UeiT2n5oSrBep1m5Dz1BAhNXx46hpUFU4UsA1yQv6sm35eBR1AgpdcLzNO7i/1
D1AEyYMheV70G5+LO+60Dz0G1lQHR/CBtF7yNbdBYHjE79iqjQPbDYI33a6KY3cx
4uxrLApYyLhahqS4j4UQ5i7KtrTHQQopesQEcX2SAHbXSHHO2cDXMQnNcZJZc+0Y
+sZNNiv8b6XhtZZfWHTmk1hUroMYTs5xwF31xCa6/fhiMcPhGBzFXnAlSBQsud6g
-----END CERTIFICATE-----
