Certificate:
    Data:
        Version: 3 (0x2)
        Serial Number: 1 (0x1)
        Signature Algorithm: sha256WithRSAEncryption
        Issuer: C=DE, O=DIMDI, OU=DIMDI, CN=DIMDI-RootCA-2011
        Validity
            Not Before: May 12 16:47:45 2011 GMT
            Not After : May 11 16:47:45 2036 GMT
        Subject: C=DE, O=DIMDI, OU=DIMDI, CN=DIMDI-App-AccessCa
        Subject Public Key Info:
            Public Key Algorithm: rsaEncryption
            RSA Public Key: (2048 bit)
                Modulus (2048 bit):
                    00:b4:5a:12:59:cb:61:f5:d2:11:b3:6a:29:fd:7f:
                    49:06:a2:ee:e8:41:dc:33:fe:e3:68:91:df:0e:fa:
                    44:c1:cd:44:cd:97:74:13:56:5f:92:6c:65:15:ba:
                    f5:83:93:75:ef:53:69:47:7b:ab:63:e2:23:f6:44:
                    d2:8f:a7:79:b6:eb:e8:ef:1b:08:1a:39:88:67:36:
                    38:9e:35:ea:84:f8:39:22:d4:ab:0f:a0:a1:bf:ef:
                    42:c3:65:8a:0e:a9:1f:96:a3:25:c3:07:99:9b:fb:
                    15:57:08:a6:7a:79:97:6d:e0:08:c7:58:bb:bc:39:
                    26:3c:8c:24:3a:fd:69:4f:75:76:7f:78:c7:02:60:
                    56:66:14:e5:6d:24:e3:0c:4f:6b:1f:79:a2:4d:9b:
                    54:e7:bf:ea:e0:f3:99:d8:73:24:45:13:7b:29:07:
                    cb:96:f3:ed:1f:42:d8:05:89:a6:7f:95:26:88:48:
                    ca:4a:f1:d6:c7:7b:d3:67:73:55:fd:a1:93:d3:c4:
                    56:26:83:59:84:94:cd:f9:ce:4c:70:95:c8:e1:5d:
                    c9:ee:f3:1d:23:87:be:25:a8:9a:6d:72:c9:44:e4:
                    3e:a0:58:93:1a:73:cc:b5:a5:32:9a:6d:53:17:84:
                    27:72:48:79:ee:9a:d6:f1:ec:e3:80:9f:9d:69:a0:
                    8d:2f
                Exponent: 65537 (0x10001)
        X509v3 extensions:
            X509v3 Basic Constraints: critical
                CA:TRUE
            X509v3 Key Usage: 
                Certificate Sign, CRL Sign
            Netscape Comment: 
                SubCA
            X509v3 Subject Key Identifier: 
                CE:FB:9A:29:8E:CF:E1:78:66:20:FC:22:7A:EC:83:87:27:A0:C7:2C
            X509v3 Authority Key Identifier: 
                DirName:/C=DE/O=DIMDI/OU=DIMDI/CN=DIMDI-RootCA-2011
                serial:EA:BE:94:DE:F7:F1:11:49

            X509v3 Issuer Alternative Name: 
                <EMPTY>

            X509v3 CRL Distribution Points: 
                URI:http://www.dimdi.de/dimdi-ca/crl.pem

    Signature Algorithm: sha256WithRSAEncryption
        9f:65:7c:92:c1:66:54:21:79:cd:11:57:cf:ba:41:7a:e3:b8:
        3f:64:32:12:b5:12:f8:d4:28:4c:9e:12:28:a2:6b:8a:fc:49:
        cc:cb:80:fe:39:b9:4a:e8:cd:73:60:f4:a6:ce:16:54:4a:c1:
        59:2b:8c:df:7a:20:fe:38:7e:95:ca:a5:d4:43:80:76:6f:f6:
        d7:25:a9:f1:22:72:5a:04:fc:92:ac:94:c0:c8:d4:84:6f:6f:
        43:c1:a5:e6:36:e3:6f:af:ea:cc:e9:ed:3e:2d:0b:9a:78:7b:
        92:5b:b5:35:f2:42:2c:cd:6b:96:3c:22:af:ba:57:44:11:06:
        52:36:c6:9b:ad:d6:0c:e3:be:3a:58:a6:7d:10:8f:de:76:c4:
        b0:6d:ae:1f:49:f5:21:93:68:0d:90:86:be:36:e9:98:9a:b9:
        37:62:ce:cf:ad:bf:e0:f2:00:7c:6c:ee:0a:c5:13:f1:56:d7:
        27:18:5b:7e:29:8f:bc:ba:9e:81:97:ea:46:aa:db:2e:f5:02:
        f7:20:d9:4d:1b:e6:ac:dd:38:3a:76:98:cf:8c:3a:83:aa:65:
        3f:8f:31:1d:ae:a8:7e:00:f0:ff:2f:af:53:25:d3:61:2a:3a:
        c2:d6:1e:f3:2c:1c:97:22:09:9c:f2:8a:28:e5:da:24:9f:1b:
        67:6b:0c:ab:19:8f:bd:0a:4b:b0:9f:ba:a9:2c:c8:11:63:47:
        53:03:33:f1:d8:8c:bb:5b:46:31:8d:66:26:03:e2:cc:dc:e3:
        62:a9:06:bc:a2:0a:7c:2f:eb:f8:30:8a:53:af:22:86:c0:a1:
        16:a8:e8:b2:92:e0:81:b9:5a:01:80:8f:16:01:1e:f6:e1:df:
        e6:b7:dc:a0:d9:72:c4:a2:b2:d8:8d:73:9b:43:a0:e2:1c:05:
        2d:3b:21:78:c3:c1:ac:c4:6b:66:f9:00:75:3f:ba:8b:0e:a0:
        9c:fd:6f:23:93:b6:23:b3:ea:42:ac:da:d8:fc:c0:34:fd:07:
        fe:d0:3c:58:23:a1:b3:5f:5b:86:1c:ce:2a:ba:a1:d6:7b:7b:
        0a:0e:30:90:48:50:d3:a9:50:f5:33:04:40:f4:2e:1e:9f:69:
        e2:09:d2:56:b2:f2:7a:74:26:8c:8e:00:f1:8f:07:5e:58:7e:
        4b:bd:db:a6:91:da:46:96:16:63:8c:37:45:42:33:48:af:49:
        9b:61:35:45:f6:af:5c:de:43:79:7b:b2:56:fc:80:eb:15:26:
        bd:f1:4f:d4:64:79:6f:09:5f:77:fd:2b:2e:44:99:b4:d1:7e:
        d3:22:b1:79:6a:9a:a8:fb:d2:6b:3f:4b:cb:42:9a:0a:75:20:
        72:ea:48:08:02:56:ac:92
-----BEGIN CERTIFICATE-----
MIIFDDCCAvSgAwIBAgIBATANBgkqhkiG9w0BAQsFADBJMQswCQYDVQQGEwJERTEO
MAwGA1UEChMFRElNREkxDjAMBgNVBAsTBURJTURJMRowGAYDVQQDExFESU1ESS1S
b290Q0EtMjAxMTAeFw0xMTA1MTIxNjQ3NDVaFw0zNjA1MTExNjQ3NDVaMEoxCzAJ
BgNVBAYTAkRFMQ4wDAYDVQQKEwVESU1ESTEOMAwGA1UECxMFRElNREkxGzAZBgNV
BAMTEkRJTURJLUFwcC1BY2Nlc3NDYTCCASIwDQYJKoZIhvcNAQEBBQADggEPADCC
AQoCggEBALRaElnLYfXSEbNqKf1/SQai7uhB3DP+42iR3w76RMHNRM2XdBNWX5Js
ZRW69YOTde9TaUd7q2PiI/ZE0o+nebbr6O8bCBo5iGc2OJ416oT4OSLUqw+gob/v
QsNlig6pH5ajJcMHmZv7FVcIpnp5l23gCMdYu7w5JjyMJDr9aU91dn94xwJgVmYU
5W0k4wxPax95ok2bVOe/6uDzmdhzJEUTeykHy5bz7R9C2AWJpn+VJohIykrx1sd7
02dzVf2hk9PEViaDWYSUzfnOTHCVyOFdye7zHSOHviWomm1yyUTkPqBYkxpzzLWl
MpptUxeEJ3JIee6a1vHs44CfnWmgjS8CAwEAAaOB/TCB+jAPBgNVHRMBAf8EBTAD
AQH/MAsGA1UdDwQEAwIBBjAUBglghkgBhvhCAQ0EBxYFU3ViQ0EwHQYDVR0OBBYE
FM77mimOz+F4ZiD8Inrsg4cnoMcsMGMGA1UdIwRcMFqhTaRLMEkxCzAJBgNVBAYT
AkRFMQ4wDAYDVQQKEwVESU1ESTEOMAwGA1UECxMFRElNREkxGjAYBgNVBAMTEURJ
TURJLVJvb3RDQS0yMDExggkA6r6U3vfxEUkwCQYDVR0SBAIwADA1BgNVHR8ELjAs
MCqgKKAmhiRodHRwOi8vd3d3LmRpbWRpLmRlL2RpbWRpLWNhL2NybC5wZW0wDQYJ
KoZIhvcNAQELBQADggIBAJ9lfJLBZlQhec0RV8+6QXrjuD9kMhK1EvjUKEyeEiii
a4r8SczLgP45uUrozXNg9KbOFlRKwVkrjN96IP44fpXKpdRDgHZv9tclqfEicloE
/JKslMDI1IRvb0PBpeY242+v6szp7T4tC5p4e5JbtTXyQizNa5Y8Iq+6V0QRBlI2
xput1gzjvjpYpn0Qj952xLBtrh9J9SGTaA2Qhr426ZiauTdizs+tv+DyAHxs7grF
E/FW1ycYW34pj7y6noGX6kaq2y71Avcg2U0b5qzdODp2mM+MOoOqZT+PMR2uqH4A
8P8vr1Ml02EqOsLWHvMsHJciCZzyiijl2iSfG2drDKsZj70KS7CfuqksyBFjR1MD
M/HYjLtbRjGNZiYD4szc42KpBryiCnwv6/gwilOvIobAoRao6LKS4IG5WgGAjxYB
Hvbh3+a33KDZcsSistiNc5tDoOIcBS07IXjDwazEa2b5AHU/uosOoJz9byOTtiOz
6kKs2tj8wDT9B/7QPFgjobNfW4Ycziq6odZ7ewoOMJBIUNOpUPUzBED0Lh6faeIJ
0lay8np0JoyOAPGPB15Yfku926aR2kaWFmOMN0VCM0ivSZthNUX2r1zeQ3l7slb8
gOsVJr3xT9RkeW8JX3f9Ky5EmbTRftMisXlqmqj70ms/S8tCmgp1IHLqSAgCVqyS
-----END CERTIFICATE-----
