Certificate:
    Data:
        Version: 3 (0x2)
        Serial Number: 2 (0x2)
        Signature Algorithm: sha256WithRSAEncryption
        Issuer: C=DE, O=DIMDI, OU=DIMDI, CN=DIMDI-RootCA-2011
        Validity
            Not Before: May 12 15:09:20 2011 GMT
            Not After : May 10 15:09:20 2036 GMT
        Subject: C=DE, O=DIMDI, OU=DIMDI, OU=DIMDI, CN=SubCA XYZ
        Subject Public Key Info:
            Public Key Algorithm: rsaEncryption
            RSA Public Key: (4096 bit)
                Modulus (4096 bit):
                    00:9b:6a:e6:3b:73:29:14:03:c1:00:f8:08:0f:7b:
                    81:f7:a2:0e:23:4e:db:7c:2e:0d:e9:42:8b:58:23:
                    e9:c1:d4:ac:ed:2d:ec:d0:23:4d:4c:90:87:08:64:
                    61:7b:bf:34:66:dd:2f:91:c3:02:6f:f3:e4:7a:d3:
                    fa:25:e6:8f:76:61:ac:43:11:65:08:3f:d6:48:9f:
                    e2:a3:c7:e7:70:b9:45:41:93:80:94:a7:5f:2f:3d:
                    d3:cf:f5:7a:48:bf:44:45:25:02:fb:3f:65:09:41:
                    b0:ef:1c:5b:26:ee:36:7c:71:63:04:09:11:eb:f3:
                    ea:18:a0:31:7c:ff:09:a5:5f:76:c3:c0:07:27:9b:
                    4a:99:de:cd:30:c1:87:3a:50:1f:85:ea:82:35:7f:
                    97:52:08:9c:24:8b:b4:16:66:ef:00:6e:e2:fb:a1:
                    b2:0b:bd:e3:aa:f2:1b:34:15:0d:04:7b:f3:d8:5a:
                    f4:55:9c:c6:6d:b9:4c:b4:d2:12:7e:2b:0c:d1:7a:
                    7a:37:b7:ad:28:b6:54:c6:1b:de:43:d2:26:48:96:
                    82:de:7a:80:e9:1d:36:52:dd:6d:ef:d2:c0:56:4e:
                    0e:89:7c:16:78:60:ec:52:d7:15:e4:8f:83:a8:cf:
                    3b:56:02:45:52:1c:f8:f7:6a:41:e7:3f:9b:83:e6:
                    ef:86:0d:3d:e1:ea:c8:71:5f:4b:49:fb:11:bb:07:
                    f1:8d:76:e9:55:fc:5e:5d:f8:7f:ff:aa:f6:e2:83:
                    d1:d2:32:31:0c:12:50:3f:7e:a8:21:1e:16:f8:9a:
                    f2:2e:19:0f:b1:82:1b:a5:f9:98:f4:99:16:e8:83:
                    28:61:a4:56:12:ae:c7:b3:59:49:90:02:41:f7:79:
                    01:91:f8:7e:9f:92:9e:c1:64:4e:35:1a:66:ab:9a:
                    ec:73:49:72:a0:54:8f:bb:d0:02:d6:6d:3c:71:e5:
                    e8:67:63:87:51:d2:db:7b:30:01:4b:21:70:c2:0d:
                    75:f6:82:99:ec:75:9e:e5:ec:c6:b2:12:54:4a:1d:
                    5a:ea:8f:b3:64:c8:cd:57:77:63:34:75:f2:e0:fb:
                    e4:e3:35:7e:d2:b0:81:e8:51:21:85:a6:29:cf:7f:
                    13:fb:90:96:62:5e:b3:8f:46:ae:99:ed:b5:2e:50:
                    e7:f4:e6:cb:4e:62:23:d2:7b:60:93:f0:3f:4c:0a:
                    a2:84:d9:b1:71:f0:79:69:13:fe:ab:15:0e:2c:85:
                    e6:73:46:fc:8e:a4:18:61:33:26:e2:c2:a5:ff:d2:
                    ec:31:26:52:be:48:91:25:e4:6e:ff:6e:fa:82:7b:
                    52:ed:aa:b8:4b:f8:af:74:49:3a:9a:60:db:1b:e3:
                    1c:8a:9d
                Exponent: 65537 (0x10001)
        X509v3 extensions:
            X509v3 Basic Constraints: critical
                CA:TRUE
            X509v3 Key Usage: 
                Certificate Sign, CRL Sign
            Netscape Comment: 
                SubCA
            X509v3 Subject Key Identifier: 
                1B:E7:AE:3A:12:57:0A:B7:33:CA:96:D4:8A:A6:11:26:F5:53:EA:3E
            X509v3 Authority Key Identifier: 
                DirName:/C=DE/O=DIMDI/OU=DIMDI/CN=DIMDI-RootCA-2011
                serial:DA:BF:20:74:01:32:EF:F9

            X509v3 Issuer Alternative Name: 
                <EMPTY>

    Signature Algorithm: sha256WithRSAEncryption
        42:11:e0:f9:cb:9c:78:6f:e7:85:aa:2c:81:5e:18:03:4f:0e:
        81:1c:03:17:a6:74:0c:bd:02:11:1b:c7:a6:00:98:d7:7d:d5:
        f2:c0:c8:ea:54:65:15:80:3c:0e:ef:0a:2f:df:4d:23:36:94:
        1e:9d:13:e4:56:5d:1c:34:7c:79:77:e0:d4:8f:43:dc:1f:a8:
        cb:54:30:53:3a:b9:d4:1a:95:a8:f4:16:7d:6b:29:ae:4b:e7:
        a0:32:30:03:ec:f1:47:dc:48:de:d4:b4:e1:fe:fd:10:53:58:
        8c:09:c0:b7:69:73:16:a5:d1:a8:9a:7e:f1:8f:cf:49:29:83:
        fc:fb:f6:a5:17:ce:75:89:0f:87:c3:02:a9:22:1e:72:da:ff:
        c6:01:3a:79:27:d8:77:ea:81:1b:ac:63:69:2c:27:4e:01:2e:
        56:a7:1d:02:fb:e2:25:00:d4:bb:97:21:e3:6a:a2:78:f7:cc:
        c1:06:be:f0:33:29:a8:ec:ee:98:80:f0:c9:42:27:01:8c:2f:
        ce:2b:8a:f1:72:1c:ec:af:e6:0f:0a:70:bc:ce:00:f9:86:04:
        e3:53:71:1e:3c:a2:74:90:27:9c:7e:0a:a4:68:be:35:14:37:
        ec:8a:16:72:3e:d7:3a:ec:10:10:0d:8c:65:97:a8:3b:54:b8:
        a4:f5:8f:52:2b:be:60:d2:59:60:df:30:cb:8f:e4:61:a5:5f:
        41:a6:fa:51:09:f3:47:48:1e:4e:3d:5f:be:ed:dd:20:32:00:
        a5:dc:5d:81:c1:a9:29:07:98:29:22:32:4c:af:42:88:b5:74:
        56:a5:fb:f5:05:f6:8d:ad:2e:23:82:3b:ff:f3:4b:18:48:94:
        79:14:a6:ec:22:bb:7b:5e:61:38:3a:7a:39:c3:ae:ac:b3:a8:
        57:0d:26:14:ec:0a:66:cc:a9:37:a3:96:53:e7:75:5c:d0:84:
        b8:25:32:8c:27:22:5c:40:62:2a:84:3f:e1:3b:e8:1f:ff:c0:
        22:b7:ad:d5:4e:75:9f:a4:74:c3:60:d3:e4:92:c9:26:2e:c3:
        c8:d9:db:3c:94:70:6a:0c:15:a3:06:25:38:d8:03:d6:77:c7:
        21:d8:00:f9:a7:42:c3:6a:4b:cf:8f:9f:fe:c6:2f:60:a6:5a:
        42:8d:dd:c0:06:c5:4d:c8:4d:8c:a3:8e:6f:ac:a2:51:52:97:
        62:47:ca:0a:3b:37:98:aa:3c:8e:b7:b2:ae:50:b6:7b:29:a6:
        55:69:bc:69:3c:e1:49:0c:c6:82:05:5c:0d:9a:27:e8:f7:e2:
        ec:e0:f1:b5:54:d5:54:9f:9e:21:38:b9:a8:4d:5f:f7:a2:30:
        9e:70:28:f8:58:2d:3c:26
-----BEGIN CERTIFICATE-----
MIIF3DCCA8SgAwIBAgIBAjANBgkqhkiG9w0BAQsFADBJMQswCQYDVQQGEwJERTEO
MAwGA1UEChMFRElNREkxDjAMBgNVBAsTBURJTURJMRowGAYDVQQDExFESU1ESS1S
b290Q0EtMjAxMTAeFw0xMTA1MTIxNTA5MjBaFw0zNjA1MTAxNTA5MjBaMFExCzAJ
BgNVBAYTAkRFMQ4wDAYDVQQKEwVESU1ESTEOMAwGA1UECxMFRElNREkxDjAMBgNV
BAsTBURJTURJMRIwEAYDVQQDEwlTdWJDQSBYWVowggIiMA0GCSqGSIb3DQEBAQUA
A4ICDwAwggIKAoICAQCbauY7cykUA8EA+AgPe4H3og4jTtt8Lg3pQotYI+nB1Kzt
LezQI01MkIcIZGF7vzRm3S+RwwJv8+R60/ol5o92YaxDEWUIP9ZIn+Kjx+dwuUVB
k4CUp18vPdPP9XpIv0RFJQL7P2UJQbDvHFsm7jZ8cWMECRHr8+oYoDF8/wmlX3bD
wAcnm0qZ3s0wwYc6UB+F6oI1f5dSCJwki7QWZu8AbuL7obILveOq8hs0FQ0Ee/PY
WvRVnMZtuUy00hJ+KwzReno3t60otlTGG95D0iZIloLeeoDpHTZS3W3v0sBWTg6J
fBZ4YOxS1xXkj4OozztWAkVSHPj3akHnP5uD5u+GDT3h6shxX0tJ+xG7B/GNdulV
/F5d+H//qvbig9HSMjEMElA/fqghHhb4mvIuGQ+xghul+Zj0mRbogyhhpFYSrsez
WUmQAkH3eQGR+H6fkp7BZE41GmarmuxzSXKgVI+70ALWbTxx5ehnY4dR0tt7MAFL
IXDCDXX2gpnsdZ7l7MayElRKHVrqj7NkyM1Xd2M0dfLg++TjNX7SsIHoUSGFpinP
fxP7kJZiXrOPRq6Z7bUuUOf05stOYiPSe2CT8D9MCqKE2bFx8HlpE/6rFQ4sheZz
RvyOpBhhMybiwqX/0uwxJlK+SJEl5G7/bvqCe1LtqrhL+K90STqaYNsb4xyKnQID
AQABo4HGMIHDMA8GA1UdEwEB/wQFMAMBAf8wCwYDVR0PBAQDAgEGMBQGCWCGSAGG
+EIBDQQHFgVTdWJDQTAdBgNVHQ4EFgQUG+euOhJXCrczypbUiqYRJvVT6j4wYwYD
VR0jBFwwWqFNpEswSTELMAkGA1UEBhMCREUxDjAMBgNVBAoTBURJTURJMQ4wDAYD
VQQLEwVESU1ESTEaMBgGA1UEAxMRRElNREktUm9vdENBLTIwMTGCCQDavyB0ATLv
+TAJBgNVHRIEAjAAMA0GCSqGSIb3DQEBCwUAA4ICAQBCEeD5y5x4b+eFqiyBXhgD
Tw6BHAMXpnQMvQIRG8emAJjXfdXywMjqVGUVgDwO7wov300jNpQenRPkVl0cNHx5
d+DUj0PcH6jLVDBTOrnUGpWo9BZ9aymuS+egMjAD7PFH3Eje1LTh/v0QU1iMCcC3
aXMWpdGomn7xj89JKYP8+/alF851iQ+HwwKpIh5y2v/GATp5J9h36oEbrGNpLCdO
AS5Wpx0C++IlANS7lyHjaqJ498zBBr7wMymo7O6YgPDJQicBjC/OK4rxchzsr+YP
CnC8zgD5hgTjU3EePKJ0kCecfgqkaL41FDfsihZyPtc67BAQDYxll6g7VLik9Y9S
K75g0llg3zDLj+RhpV9BpvpRCfNHSB5OPV++7d0gMgCl3F2BwakpB5gpIjJMr0KI
tXRWpfv1BfaNrS4jgjv/80sYSJR5FKbsIrt7XmE4Ono5w66ss6hXDSYU7ApmzKk3
o5ZT53Vc0IS4JTKMJyJcQGIqhD/hO+gf/8Ait63VTnWfpHTDYNPkkskmLsPI2ds8
lHBqDBWjBiU42APWd8ch2AD5p0LDakvPj5/+xi9gplpCjd3ABsVNyE2Mo45vrKJR
UpdiR8oKOzeYqjyOt7KuULZ7KaZVabxpPOFJDMaCBVwNmifo9+Ls4PG1VNVUn54h
OLmoTV/3ojCecCj4WC08Jg==
-----END CERTIFICATE-----
